target datalayout = "e-m:e-p270:32:32-p271:32:32-p272:64:64-i64:64-i128:128-f80:128-n8:16:32:64-S128"
target triple = "x86_64-pc-linux-gnu"

%struct.__va_list_tag = type { i32, i32, ptr, ptr }

; Function Attrs: noreturn nounwind sspstrong uwtable
define internal void @raise_generator_error(i64 noundef %0, ptr noundef %1, ...) #19 {
  %3 = alloca i64, align 8
  %4 = alloca ptr, align 8
  %5 = alloca [1 x %struct.__va_list_tag], align 16
  %6 = alloca i64, align 8
  store i64 %0, ptr %3, align 8, !tbaa !6
  store ptr %1, ptr %4, align 8, !tbaa !56
  call void @llvm.lifetime.start.p0(i64 24, ptr %5) #27
  %7 = getelementptr inbounds [1 x %struct.__va_list_tag], ptr %5, i64 0, i64 0
  call void @llvm.va_start.p0(ptr %7)
  call void @llvm.lifetime.start.p0(i64 8, ptr %6) #27
  %8 = load ptr, ptr %4, align 8, !tbaa !56
  %9 = getelementptr inbounds [1 x %struct.__va_list_tag], ptr %5, i64 0, i64 0
  %10 = call i64 @rb_vsprintf(ptr noundef %8, ptr noundef %9)
  store i64 %10, ptr %6, align 8, !tbaa !6
  %11 = getelementptr inbounds [1 x %struct.__va_list_tag], ptr %5, i64 0, i64 0
  call void @llvm.va_end.p0(ptr %11)
  %12 = load i64, ptr %3, align 8, !tbaa !6
  %13 = load i64, ptr %6, align 8, !tbaa !6
  call void @raise_generator_error_str(i64 noundef %12, i64 noundef %13) #30
  unreachable
}