; Function Attrs: noreturn nounwind sspstrong uwtable
define internal void @raise_generator_error(i64 noundef %0, ptr noundef %1, ...) unnamed_addr #10 {
  %3 = alloca [1 x %struct.__va_list_tag], align 16
  call void @llvm.lifetime.start.p0(i64 24, ptr nonnull %3) #22
  call void @llvm.va_start.p0(ptr nonnull %3)
  %4 = call i64 @rb_vsprintf(ptr noundef %1, ptr noundef nonnull %3) #22
  call void @llvm.va_end.p0(ptr nonnull %3)
  call fastcc void @raise_generator_error_str(i64 noundef %0, i64 noundef %4) #28
  unreachable
}